; Function Attrs: nounwind uwtable
define noundef i32 @cli_jsonint_array(ptr noundef %0, i32 noundef %1) local_unnamed_addr #0 {
  %3 = icmp eq ptr %0, null
  br i1 %3, label %4, label %5

4:                                                ; preds = %2
  tail call void (ptr, ...) @cli_dbgmsg(ptr noundef nonnull @.str.8) #2
  br label %cli_jsonint.exit

5:                                                ; preds = %2
  %6 = tail call i32 @json_object_get_type(ptr noundef nonnull %0) #2
  switch i32 %6, label %cli_jsonint.exit [
    i32 4, label %7
    i32 5, label %.thread.i
  ]

7:                                                ; preds = %5
  tail call void (ptr, ...) @cli_dbgmsg(ptr noundef nonnull @.str.9) #2
  br label %cli_jsonint.exit

.thread.i:                                        ; preds = %5
  %8 = tail call ptr @json_object_new_int(i32 noundef %1) #2
  %9 = icmp eq ptr %8, null
  br i1 %9, label %10, label %11

10:                                               ; preds = %.thread.i
  tail call void (ptr, ...) @cli_errmsg(ptr noundef nonnull @.str.10) #2
  br label %cli_jsonint.exit

11:                                               ; preds = %.thread.i
  %12 = tail call i32 @json_object_array_add(ptr noundef nonnull %0, ptr noundef nonnull %8) #2
  br label %cli_jsonint.exit

cli_jsonint.exit:                                 ; preds = %4, %5, %7, %10, %11
  %.0.i = phi i32 [ 2, %4 ], [ 2, %7 ], [ 20, %10 ], [ 0, %11 ], [ 3, %5 ]
  ret i32 %.0.i
}